target datalayout = "e-m:e-p270:32:32-p271:32:32-p272:64:64-i64:64-i128:128-f80:128-n8:16:32:64-S128"
target triple = "x86_64-pc-linux-gnu"

%struct.b2HashSet = type { ptr, i32, i32 }
%struct.b2IntArray = type { ptr, i32, i32 }
%struct.b2DynamicTree = type { ptr, i32, i32, i32, i32, i32, ptr, ptr, ptr, ptr, i32 }
%struct.b2BroadPhase = type { [3 x %struct.b2DynamicTree], i32, %struct.b2HashSet, %struct.b2IntArray, ptr, ptr, i32, %struct.b2AtomicInt, %struct.b2HashSet }
%struct.b2AtomicInt = type { i32 }
%struct.b2AABB = type { %struct.b2Vec2, %struct.b2Vec2 }
%struct.b2Vec2 = type { float, float }
%struct.b2World = type { %struct.b2ArenaAllocator, %struct.b2BroadPhase, %struct.b2ConstraintGraph, %struct.b2IdPool, %struct.b2BodyArray, %struct.b2IdPool, %struct.b2SolverSetArray, %struct.b2IdPool, %struct.b2JointArray, %struct.b2IdPool, %struct.b2ContactArray, %struct.b2IdPool, %struct.b2IslandArray, %struct.b2IdPool, %struct.b2IdPool, %struct.b2ShapeArray, %struct.b2ChainShapeArray, %struct.b2SensorArray, %struct.b2TaskContextArray, %struct.b2SensorTaskContextArray, %struct.b2BodyMoveEventArray, %struct.b2SensorBeginTouchEventArray, %struct.b2ContactBeginTouchEventArray, [2 x %struct.b2SensorEndTouchEventArray], [2 x %struct.b2ContactEndTouchEventArray], i32, %struct.b2ContactHitEventArray, %struct.b2BitSet, %struct.b2BitSet, %struct.b2BitSet, i64, i32, %struct.b2Vec2, float, float, float, float, float, float, float, float, ptr, ptr, i16, %struct.b2Profile, ptr, ptr, ptr, ptr, i32, ptr, ptr, ptr, ptr, ptr, float, i32, i32, i16, i8, i8, i8, i8, i8, i8 }
%struct.b2ArenaAllocator = type { ptr, i32, i32, i32, i32, %struct.b2ArenaEntryArray }
%struct.b2ArenaEntryArray = type { ptr, i32, i32 }
%struct.b2ConstraintGraph = type { [12 x %struct.b2GraphColor] }
%struct.b2GraphColor = type { %struct.b2BitSet, %struct.b2ContactSimArray, %struct.b2JointSimArray, %union.anon }
%struct.b2ContactSimArray = type { ptr, i32, i32 }
%struct.b2JointSimArray = type { ptr, i32, i32 }
%union.anon = type { ptr }
%struct.b2BodyArray = type { ptr, i32, i32 }
%struct.b2SolverSetArray = type { ptr, i32, i32 }
%struct.b2JointArray = type { ptr, i32, i32 }
%struct.b2ContactArray = type { ptr, i32, i32 }
%struct.b2IslandArray = type { ptr, i32, i32 }
%struct.b2IdPool = type { %struct.b2IntArray, i32 }
%struct.b2ShapeArray = type { ptr, i32, i32 }
%struct.b2ChainShapeArray = type { ptr, i32, i32 }
%struct.b2SensorArray = type { ptr, i32, i32 }
%struct.b2TaskContextArray = type { ptr, i32, i32 }
%struct.b2SensorTaskContextArray = type { ptr, i32, i32 }
%struct.b2BodyMoveEventArray = type { ptr, i32, i32 }
%struct.b2SensorBeginTouchEventArray = type { ptr, i32, i32 }
%struct.b2ContactBeginTouchEventArray = type { ptr, i32, i32 }
%struct.b2SensorEndTouchEventArray = type { ptr, i32, i32 }
%struct.b2ContactEndTouchEventArray = type { ptr, i32, i32 }
%struct.b2ContactHitEventArray = type { ptr, i32, i32 }
%struct.b2BitSet = type { ptr, i32, i32 }
%struct.b2Profile = type { float, float, float, float, float, float, float, float, float, float, float, float, float, float, float, float, float, float, float, float, float, float }
%struct.b2MoveResult = type { ptr }
%struct.b2MovePair = type { i32, i32, ptr, i8 }
%struct.b2Shape = type { i32, i32, i32, i32, i32, i32, float, float, float, float, float, i32, %struct.b2AABB, %struct.b2AABB, %struct.b2Vec2, i32, %struct.b2Filter, ptr, i32, %union.anon.0, i16, i8, i8, i8, i8 }
%struct.b2Filter = type { i64, i64, i32 }
%union.anon.0 = type { %struct.b2Polygon }
%struct.b2Polygon = type { [8 x %struct.b2Vec2], [8 x %struct.b2Vec2], %struct.b2Vec2, float, i32 }

@.str = private unnamed_addr constant [13 x i8] c"move results\00", align 1
@.str.1 = private unnamed_addr constant [11 x i8] c"move pairs\00", align 1

; Function Attrs: inlinehint nounwind uwtable
define internal void @b2IntArray_Clear(ptr noundef %0) #4 {
  %2 = alloca ptr, align 8
  store ptr %0, ptr %2, align 8, !tbaa !94
  %3 = load ptr, ptr %2, align 8, !tbaa !94
  %4 = getelementptr inbounds nuw %struct.b2IntArray, ptr %3, i32 0, i32 1
  store i32 0, ptr %4, align 8, !tbaa !122
  ret void
}

; Function Attrs: inlinehint nounwind uwtable
define internal ptr @b2ShapeArray_Get(ptr noundef %0, i32 noundef %1) #4 {
  %3 = alloca ptr, align 8
  %4 = alloca i32, align 4
  store ptr %0, ptr %3, align 8, !tbaa !94
  store i32 %1, ptr %4, align 4, !tbaa !20
  %5 = load ptr, ptr %3, align 8, !tbaa !94
  %6 = getelementptr inbounds nuw %struct.b2ShapeArray, ptr %5, i32 0, i32 0
  %7 = load ptr, ptr %6, align 8, !tbaa !121
  %8 = load i32, ptr %4, align 4, !tbaa !20
  %9 = sext i32 %8 to i64
  %10 = getelementptr inbounds %struct.b2Shape, ptr %7, i64 %9
  ret ptr %10
}

; Function Attrs: inlinehint nounwind uwtable
define internal void @b2AtomicStoreInt(ptr noundef %0, i32 noundef %1) #4 {
  %3 = alloca ptr, align 8
  %4 = alloca i32, align 4
  %5 = alloca i32, align 4
  store ptr %0, ptr %3, align 8, !tbaa !35
  store i32 %1, ptr %4, align 4, !tbaa !20
  %6 = load ptr, ptr %3, align 8, !tbaa !35
  %7 = getelementptr inbounds nuw %struct.b2AtomicInt, ptr %6, i32 0, i32 0
  %8 = load i32, ptr %4, align 4, !tbaa !20
  store i32 %8, ptr %5, align 4, !tbaa !20
  %9 = load i32, ptr %5, align 4
  store atomic i32 %9, ptr %7 seq_cst, align 4
  ret void
}

; Function Attrs: nounwind uwtable
define hidden void @b2UpdateBroadPhasePairs(ptr noundef %0) #0 {
  %2 = alloca ptr, align 8
  %3 = alloca ptr, align 8
  %4 = alloca i32, align 4
  %5 = alloca i32, align 4
  %6 = alloca ptr, align 8
  %7 = alloca i32, align 4
  %8 = alloca ptr, align 8
  %9 = alloca i32, align 4
  %10 = alloca ptr, align 8
  %11 = alloca ptr, align 8
  %12 = alloca i32, align 4
  %13 = alloca i32, align 4
  %14 = alloca ptr, align 8
  %15 = alloca ptr, align 8
  %16 = alloca ptr, align 8
  store ptr %0, ptr %2, align 8, !tbaa !47
  call void @llvm.lifetime.start.p0(i64 8, ptr %3) #8
  %17 = load ptr, ptr %2, align 8, !tbaa !47
  %18 = getelementptr inbounds nuw %struct.b2World, ptr %17, i32 0, i32 1
  store ptr %18, ptr %3, align 8, !tbaa !3
  call void @llvm.lifetime.start.p0(i64 4, ptr %4) #8
  %19 = load ptr, ptr %3, align 8, !tbaa !3
  %20 = getelementptr inbounds nuw %struct.b2BroadPhase, ptr %19, i32 0, i32 3
  %21 = getelementptr inbounds nuw %struct.b2IntArray, ptr %20, i32 0, i32 1
  %22 = load i32, ptr %21, align 8, !tbaa !44
  store i32 %22, ptr %4, align 4, !tbaa !20
  %23 = load i32, ptr %4, align 4, !tbaa !20
  %24 = icmp eq i32 %23, 0
  br i1 %24, label %25, label %26

25:                                               ; preds = %1
  store i32 1, ptr %5, align 4
  br label %151

26:                                               ; preds = %1
  call void @llvm.lifetime.start.p0(i64 8, ptr %6) #8
  %27 = load ptr, ptr %2, align 8, !tbaa !47
  %28 = getelementptr inbounds nuw %struct.b2World, ptr %27, i32 0, i32 0
  store ptr %28, ptr %6, align 8, !tbaa !49
  %29 = load ptr, ptr %6, align 8, !tbaa !49
  %30 = load i32, ptr %4, align 4, !tbaa !20
  %31 = sext i32 %30 to i64
  %32 = mul i64 %31, 8
  %33 = trunc i64 %32 to i32
  %34 = call ptr @b2AllocateArenaItem(ptr noundef %29, i32 noundef %33, ptr noundef @.str)
  %35 = load ptr, ptr %3, align 8, !tbaa !3
  %36 = getelementptr inbounds nuw %struct.b2BroadPhase, ptr %35, i32 0, i32 4
  store ptr %34, ptr %36, align 8, !tbaa !23
  %37 = load i32, ptr %4, align 4, !tbaa !20
  %38 = mul nsw i32 16, %37
  %39 = load ptr, ptr %3, align 8, !tbaa !3
  %40 = getelementptr inbounds nuw %struct.b2BroadPhase, ptr %39, i32 0, i32 6
  store i32 %38, ptr %40, align 8, !tbaa !25
  %41 = load ptr, ptr %6, align 8, !tbaa !49
  %42 = load ptr, ptr %3, align 8, !tbaa !3
  %43 = getelementptr inbounds nuw %struct.b2BroadPhase, ptr %42, i32 0, i32 6
  %44 = load i32, ptr %43, align 8, !tbaa !25
  %45 = sext i32 %44 to i64
  %46 = mul i64 %45, 24
  %47 = trunc i64 %46 to i32
  %48 = call ptr @b2AllocateArenaItem(ptr noundef %41, i32 noundef %47, ptr noundef @.str.1)
  %49 = load ptr, ptr %3, align 8, !tbaa !3
  %50 = getelementptr inbounds nuw %struct.b2BroadPhase, ptr %49, i32 0, i32 5
  store ptr %48, ptr %50, align 8, !tbaa !24
  %51 = load ptr, ptr %3, align 8, !tbaa !3
  %52 = getelementptr inbounds nuw %struct.b2BroadPhase, ptr %51, i32 0, i32 7
  call void @b2AtomicStoreInt(ptr noundef %52, i32 noundef 0)
  call void @llvm.lifetime.start.p0(i64 4, ptr %7) #8
  store i32 64, ptr %7, align 4, !tbaa !20
  call void @llvm.lifetime.start.p0(i64 8, ptr %8) #8
  %53 = load ptr, ptr %2, align 8, !tbaa !47
  %54 = getelementptr inbounds nuw %struct.b2World, ptr %53, i32 0, i32 50
  %55 = load ptr, ptr %54, align 8, !tbaa !51
  %56 = load i32, ptr %4, align 4, !tbaa !20
  %57 = load i32, ptr %7, align 4, !tbaa !20
  %58 = load ptr, ptr %2, align 8, !tbaa !47
  %59 = load ptr, ptr %2, align 8, !tbaa !47
  %60 = getelementptr inbounds nuw %struct.b2World, ptr %59, i32 0, i32 52
  %61 = load ptr, ptr %60, align 8, !tbaa !93
  %62 = call ptr %55(ptr noundef @b2FindPairsTask, i32 noundef %56, i32 noundef %57, ptr noundef %58, ptr noundef %61)
  store ptr %62, ptr %8, align 8, !tbaa !94
  %63 = load ptr, ptr %8, align 8, !tbaa !94
  %64 = icmp ne ptr %63, null
  br i1 %64, label %65, label %77

65:                                               ; preds = %26
  %66 = load ptr, ptr %2, align 8, !tbaa !47
  %67 = getelementptr inbounds nuw %struct.b2World, ptr %66, i32 0, i32 51
  %68 = load ptr, ptr %67, align 8, !tbaa !95
  %69 = load ptr, ptr %8, align 8, !tbaa !94
  %70 = load ptr, ptr %2, align 8, !tbaa !47
  %71 = getelementptr inbounds nuw %struct.b2World, ptr %70, i32 0, i32 52
  %72 = load ptr, ptr %71, align 8, !tbaa !93
  call void %68(ptr noundef %69, ptr noundef %72)
  %73 = load ptr, ptr %2, align 8, !tbaa !47
  %74 = getelementptr inbounds nuw %struct.b2World, ptr %73, i32 0, i32 57
  %75 = load i32, ptr %74, align 8, !tbaa !96
  %76 = add nsw i32 %75, 1
  store i32 %76, ptr %74, align 8, !tbaa !96
  br label %77

77:                                               ; preds = %65, %26
  call void @llvm.lifetime.start.p0(i64 4, ptr %9) #8
  store i32 0, ptr %9, align 4, !tbaa !20
  br label %78

78:                                               ; preds = %130, %77
  %79 = load i32, ptr %9, align 4, !tbaa !20
  %80 = load i32, ptr %4, align 4, !tbaa !20
  %81 = icmp slt i32 %79, %80
  br i1 %81, label %83, label %82

82:                                               ; preds = %78
  store i32 2, ptr %5, align 4
  call void @llvm.lifetime.end.p0(i64 4, ptr %9) #8
  br label %133

83:                                               ; preds = %78
  call void @llvm.lifetime.start.p0(i64 8, ptr %10) #8
  %84 = load ptr, ptr %3, align 8, !tbaa !3
  %85 = getelementptr inbounds nuw %struct.b2BroadPhase, ptr %84, i32 0, i32 4
  %86 = load ptr, ptr %85, align 8, !tbaa !23
  %87 = load i32, ptr %9, align 4, !tbaa !20
  %88 = sext i32 %87 to i64
  %89 = getelementptr inbounds %struct.b2MoveResult, ptr %86, i64 %88
  store ptr %89, ptr %10, align 8, !tbaa !97
  call void @llvm.lifetime.start.p0(i64 8, ptr %11) #8
  %90 = load ptr, ptr %10, align 8, !tbaa !97
  %91 = getelementptr inbounds nuw %struct.b2MoveResult, ptr %90, i32 0, i32 0
  %92 = load ptr, ptr %91, align 8, !tbaa !98
  store ptr %92, ptr %11, align 8, !tbaa !100
  br label %93

93:                                               ; preds = %128, %83
  %94 = load ptr, ptr %11, align 8, !tbaa !100
  %95 = icmp ne ptr %94, null
  br i1 %95, label %96, label %129

96:                                               ; preds = %93
  call void @llvm.lifetime.start.p0(i64 4, ptr %12) #8
  %97 = load ptr, ptr %11, align 8, !tbaa !100
  %98 = getelementptr inbounds nuw %struct.b2MovePair, ptr %97, i32 0, i32 0
  %99 = load i32, ptr %98, align 8, !tbaa !101
  store i32 %99, ptr %12, align 4, !tbaa !20
  call void @llvm.lifetime.start.p0(i64 4, ptr %13) #8
  %100 = load ptr, ptr %11, align 8, !tbaa !100
  %101 = getelementptr inbounds nuw %struct.b2MovePair, ptr %100, i32 0, i32 1
  %102 = load i32, ptr %101, align 4, !tbaa !103
  store i32 %102, ptr %13, align 4, !tbaa !20
  call void @llvm.lifetime.start.p0(i64 8, ptr %14) #8
  %103 = load ptr, ptr %2, align 8, !tbaa !47
  %104 = getelementptr inbounds nuw %struct.b2World, ptr %103, i32 0, i32 15
  %105 = load i32, ptr %12, align 4, !tbaa !20
  %106 = call ptr @b2ShapeArray_Get(ptr noundef %104, i32 noundef %105)
  store ptr %106, ptr %14, align 8, !tbaa !104
  call void @llvm.lifetime.start.p0(i64 8, ptr %15) #8
  %107 = load ptr, ptr %2, align 8, !tbaa !47
  %108 = getelementptr inbounds nuw %struct.b2World, ptr %107, i32 0, i32 15
  %109 = load i32, ptr %13, align 4, !tbaa !20
  %110 = call ptr @b2ShapeArray_Get(ptr noundef %108, i32 noundef %109)
  store ptr %110, ptr %15, align 8, !tbaa !104
  %111 = load ptr, ptr %2, align 8, !tbaa !47
  %112 = load ptr, ptr %14, align 8, !tbaa !104
  %113 = load ptr, ptr %15, align 8, !tbaa !104
  call void @b2CreateContact(ptr noundef %111, ptr noundef %112, ptr noundef %113)
  %114 = load ptr, ptr %11, align 8, !tbaa !100
  %115 = getelementptr inbounds nuw %struct.b2MovePair, ptr %114, i32 0, i32 3
  %116 = load i8, ptr %115, align 8, !tbaa !105, !range !42, !noundef !43
  %117 = trunc i8 %116 to i1
  br i1 %117, label %118, label %124

118:                                              ; preds = %96
  call void @llvm.lifetime.start.p0(i64 8, ptr %16) #8
  %119 = load ptr, ptr %11, align 8, !tbaa !100
  store ptr %119, ptr %16, align 8, !tbaa !100
  %120 = load ptr, ptr %11, align 8, !tbaa !100
  %121 = getelementptr inbounds nuw %struct.b2MovePair, ptr %120, i32 0, i32 2
  %122 = load ptr, ptr %121, align 8, !tbaa !106
  store ptr %122, ptr %11, align 8, !tbaa !100
  %123 = load ptr, ptr %16, align 8, !tbaa !100
  call void @b2Free(ptr noundef %123, i32 noundef 24)
  call void @llvm.lifetime.end.p0(i64 8, ptr %16) #8
  br label %128

124:                                              ; preds = %96
  %125 = load ptr, ptr %11, align 8, !tbaa !100
  %126 = getelementptr inbounds nuw %struct.b2MovePair, ptr %125, i32 0, i32 2
  %127 = load ptr, ptr %126, align 8, !tbaa !106
  store ptr %127, ptr %11, align 8, !tbaa !100
  br label %128

128:                                              ; preds = %124, %118
  call void @llvm.lifetime.end.p0(i64 8, ptr %15) #8
  call void @llvm.lifetime.end.p0(i64 8, ptr %14) #8
  call void @llvm.lifetime.end.p0(i64 4, ptr %13) #8
  call void @llvm.lifetime.end.p0(i64 4, ptr %12) #8
  br label %93, !llvm.loop !107

129:                                              ; preds = %93
  call void @llvm.lifetime.end.p0(i64 8, ptr %11) #8
  call void @llvm.lifetime.end.p0(i64 8, ptr %10) #8
  br label %130

130:                                              ; preds = %129
  %131 = load i32, ptr %9, align 4, !tbaa !20
  %132 = add nsw i32 %131, 1
  store i32 %132, ptr %9, align 4, !tbaa !20
  br label %78, !llvm.loop !108

133:                                              ; preds = %82
  %134 = load ptr, ptr %3, align 8, !tbaa !3
  %135 = getelementptr inbounds nuw %struct.b2BroadPhase, ptr %134, i32 0, i32 3
  call void @b2IntArray_Clear(ptr noundef %135)
  %136 = load ptr, ptr %3, align 8, !tbaa !3
  %137 = getelementptr inbounds nuw %struct.b2BroadPhase, ptr %136, i32 0, i32 2
  call void @b2ClearSet(ptr noundef %137)
  %138 = load ptr, ptr %6, align 8, !tbaa !49
  %139 = load ptr, ptr %3, align 8, !tbaa !3
  %140 = getelementptr inbounds nuw %struct.b2BroadPhase, ptr %139, i32 0, i32 5
  %141 = load ptr, ptr %140, align 8, !tbaa !24
  call void @b2FreeArenaItem(ptr noundef %138, ptr noundef %141)
  %142 = load ptr, ptr %3, align 8, !tbaa !3
  %143 = getelementptr inbounds nuw %struct.b2BroadPhase, ptr %142, i32 0, i32 5
  store ptr null, ptr %143, align 8, !tbaa !24
  %144 = load ptr, ptr %6, align 8, !tbaa !49
  %145 = load ptr, ptr %3, align 8, !tbaa !3
  %146 = getelementptr inbounds nuw %struct.b2BroadPhase, ptr %145, i32 0, i32 4
  %147 = load ptr, ptr %146, align 8, !tbaa !23
  call void @b2FreeArenaItem(ptr noundef %144, ptr noundef %147)
  %148 = load ptr, ptr %3, align 8, !tbaa !3
  %149 = getelementptr inbounds nuw %struct.b2BroadPhase, ptr %148, i32 0, i32 4
  store ptr null, ptr %149, align 8, !tbaa !23
  %150 = load ptr, ptr %2, align 8, !tbaa !47
  call void @b2ValidateSolverSets(ptr noundef %150)
  call void @llvm.lifetime.end.p0(i64 8, ptr %8) #8
  call void @llvm.lifetime.end.p0(i64 4, ptr %7) #8
  call void @llvm.lifetime.end.p0(i64 8, ptr %6) #8
  store i32 0, ptr %5, align 4
  br label %151

151:                                              ; preds = %133, %25
  call void @llvm.lifetime.end.p0(i64 4, ptr %4) #8
  call void @llvm.lifetime.end.p0(i64 8, ptr %3) #8
  %152 = load i32, ptr %5, align 4
  switch i32 %152, label %154 [
    i32 0, label %153
    i32 1, label %153
  ]

153:                                              ; preds = %151, %151
  ret void

154:                                              ; preds = %151
  unreachable
}