; Function Attrs: nounwind uwtable
define hidden void @b2UpdateBroadPhasePairs(ptr noundef %0) local_unnamed_addr #0 {
  %2 = getelementptr inbounds nuw i8, ptr %0, i64 288
  %3 = load i32, ptr %2, align 8, !tbaa !32
  %4 = icmp eq i32 %3, 0
  br i1 %4, label %51, label %5

5:                                                ; preds = %1
  %6 = shl i32 %3, 3
  %7 = tail call ptr @b2AllocateArenaItem(ptr noundef nonnull %0, i32 noundef %6, ptr noundef nonnull @.str) #8
  %8 = getelementptr inbounds nuw i8, ptr %0, i64 296
  store ptr %7, ptr %8, align 8, !tbaa !35
  %9 = shl nsw i32 %3, 4
  %10 = getelementptr inbounds nuw i8, ptr %0, i64 312
  store i32 %9, ptr %10, align 8, !tbaa !36
  %11 = mul i32 %3, 384
  %12 = tail call ptr @b2AllocateArenaItem(ptr noundef nonnull %0, i32 noundef %11, ptr noundef nonnull @.str.1) #8
  %13 = getelementptr inbounds nuw i8, ptr %0, i64 304
  store ptr %12, ptr %13, align 8, !tbaa !37
  %14 = getelementptr inbounds nuw i8, ptr %0, i64 316
  store atomic i32 0, ptr %14 seq_cst, align 4
  %15 = getelementptr inbounds nuw i8, ptr %0, i64 1728
  %16 = load ptr, ptr %15, align 8, !tbaa !38
  %17 = getelementptr inbounds nuw i8, ptr %0, i64 1744
  %18 = load ptr, ptr %17, align 8, !tbaa !82
  %19 = tail call ptr %16(ptr noundef nonnull @b2FindPairsTask, i32 noundef %3, i32 noundef 64, ptr noundef nonnull %0, ptr noundef %18) #8
  %.not = icmp eq ptr %19, null
  br i1 %.not, label %27, label %20

20:                                               ; preds = %5
  %21 = getelementptr inbounds nuw i8, ptr %0, i64 1736
  %22 = load ptr, ptr %21, align 8, !tbaa !83
  %23 = load ptr, ptr %17, align 8, !tbaa !82
  tail call void %22(ptr noundef nonnull %19, ptr noundef %23) #8
  %24 = getelementptr inbounds nuw i8, ptr %0, i64 1776
  %25 = load i32, ptr %24, align 8, !tbaa !84
  %26 = add nsw i32 %25, 1
  store i32 %26, ptr %24, align 8, !tbaa !84
  br label %27

27:                                               ; preds = %20, %5
  %28 = icmp sgt i32 %3, 0
  br i1 %28, label %.lr.ph61, label %._crit_edge62

.lr.ph61:                                         ; preds = %27
  %29 = getelementptr inbounds nuw i8, ptr %0, i64 1256
  %wide.trip.count = zext nneg i32 %3 to i64
  br label %33

._crit_edge62:                                    ; preds = %._crit_edge, %27
  store i32 0, ptr %2, align 8, !tbaa !29
  %30 = getelementptr inbounds nuw i8, ptr %0, i64 264
  tail call void @b2ClearSet(ptr noundef nonnull %30) #8
  %31 = load ptr, ptr %13, align 8, !tbaa !37
  tail call void @b2FreeArenaItem(ptr noundef nonnull %0, ptr noundef %31) #8
  store ptr null, ptr %13, align 8, !tbaa !37
  %32 = load ptr, ptr %8, align 8, !tbaa !35
  tail call void @b2FreeArenaItem(ptr noundef nonnull %0, ptr noundef %32) #8
  store ptr null, ptr %8, align 8, !tbaa !35
  tail call void @b2ValidateSolverSets(ptr noundef nonnull %0) #8
  br label %51

33:                                               ; preds = %.lr.ph61, %._crit_edge
  %indvars.iv = phi i64 [ 0, %.lr.ph61 ], [ %indvars.iv.next, %._crit_edge ]
  %34 = load ptr, ptr %8, align 8, !tbaa !35
  %35 = getelementptr inbounds nuw %struct.b2MoveResult, ptr %34, i64 %indvars.iv
  %36 = load ptr, ptr %35, align 8, !tbaa !85
  %.not5557 = icmp eq ptr %36, null
  br i1 %.not5557, label %._crit_edge, label %.lr.ph

.lr.ph:                                           ; preds = %33, %50
  %.05258 = phi ptr [ %48, %50 ], [ %36, %33 ]
  %37 = load i32, ptr %.05258, align 8, !tbaa !87
  %38 = getelementptr inbounds nuw i8, ptr %.05258, i64 4
  %39 = load i32, ptr %38, align 4, !tbaa !89
  %.val = load ptr, ptr %29, align 8, !tbaa !90
  %40 = sext i32 %37 to i64
  %41 = getelementptr inbounds %struct.b2Shape, ptr %.val, i64 %40
  %42 = sext i32 %39 to i64
  %43 = getelementptr inbounds %struct.b2Shape, ptr %.val, i64 %42
  tail call void @b2CreateContact(ptr noundef nonnull %0, ptr noundef %41, ptr noundef %43) #8
  %44 = getelementptr inbounds nuw i8, ptr %.05258, i64 16
  %45 = load i8, ptr %44, align 8, !tbaa !91, !range !92, !noundef !93
  %46 = trunc nuw i8 %45 to i1
  %47 = getelementptr inbounds nuw i8, ptr %.05258, i64 8
  %48 = load ptr, ptr %47, align 8, !tbaa !94
  br i1 %46, label %49, label %50

49:                                               ; preds = %.lr.ph
  tail call void @b2Free(ptr noundef nonnull %.05258, i32 noundef 24) #8
  br label %50

50:                                               ; preds = %.lr.ph, %49
  %.not55 = icmp eq ptr %48, null
  br i1 %.not55, label %._crit_edge, label %.lr.ph, !llvm.loop !95

._crit_edge:                                      ; preds = %50, %33
  %indvars.iv.next = add nuw nsw i64 %indvars.iv, 1
  %exitcond.not = icmp eq i64 %indvars.iv.next, %wide.trip.count
  br i1 %exitcond.not, label %._crit_edge62, label %33, !llvm.loop !96

51:                                               ; preds = %1, %._crit_edge62
  ret void
}